target datalayout = "e-m:e-p270:32:32-p271:32:32-p272:64:64-i64:64-i128:128-f80:128-n8:16:32:64-S128"
target triple = "x86_64-pc-linux-gnu"

@_ZTISt13runtime_error = external constant ptr
@.str.13 = private unnamed_addr constant [25 x i8] c"Invalid metric selected.\00", align 1

; Function Attrs: mustprogress nounwind uwtable
define linkonce_odr hidden noundef float @_Z3absB8ne190000f(float noundef %0) #1 comdat {
  %2 = alloca float, align 4
  store float %0, ptr %2, align 4
  %3 = load float, ptr %2, align 4
  %4 = call float @llvm.fabs.f32(float %3)
  ret float %4
}

; Function Attrs: mustprogress uwtable
define dso_local noundef float @_ZN3tev11ImageCanvas11applyMetricEffNS_7EMetricE(float noundef %0, float noundef %1, i32 noundef %2) #4 align 2 personality ptr @__gxx_personality_v0 {
  %4 = alloca float, align 4
  %5 = alloca float, align 4
  %6 = alloca float, align 4
  %7 = alloca i32, align 4
  %8 = alloca float, align 4
  %9 = alloca ptr, align 8
  %10 = alloca i32, align 4
  store float %0, ptr %5, align 4
  store float %1, ptr %6, align 4
  store i32 %2, ptr %7, align 4
  %11 = load float, ptr %5, align 4
  %12 = load float, ptr %6, align 4
  %13 = fsub float %11, %12
  store float %13, ptr %8, align 4
  %14 = load i32, ptr %7, align 4
  switch i32 %14, label %38 [
    i32 0, label %15
    i32 1, label %17
    i32 2, label %20
    i32 3, label %24
    i32 4, label %30
  ]

15:                                               ; preds = %3
  %16 = load float, ptr %8, align 4
  store float %16, ptr %4, align 4
  br label %45

17:                                               ; preds = %3
  %18 = load float, ptr %8, align 4
  %19 = call noundef float @_Z3absB8ne190000f(float noundef %18) #12
  store float %19, ptr %4, align 4
  br label %45

20:                                               ; preds = %3
  %21 = load float, ptr %8, align 4
  %22 = load float, ptr %8, align 4
  %23 = fmul float %21, %22
  store float %23, ptr %4, align 4
  br label %45

24:                                               ; preds = %3
  %25 = load float, ptr %8, align 4
  %26 = call noundef float @_Z3absB8ne190000f(float noundef %25) #12
  %27 = load float, ptr %6, align 4
  %28 = fadd float %27, 0x3F847AE140000000
  %29 = fdiv float %26, %28
  store float %29, ptr %4, align 4
  br label %45

30:                                               ; preds = %3
  %31 = load float, ptr %8, align 4
  %32 = load float, ptr %8, align 4
  %33 = fmul float %31, %32
  %34 = load float, ptr %6, align 4
  %35 = load float, ptr %6, align 4
  %36 = call float @llvm.fmuladd.f32(float %34, float %35, float 0x3F847AE140000000)
  %37 = fdiv float %33, %36
  store float %37, ptr %4, align 4
  br label %45

38:                                               ; preds = %3
  %39 = call ptr @__cxa_allocate_exception(i64 16) #12
  invoke void @_ZNSt13runtime_errorC1EPKc(ptr noundef nonnull align 8 dereferenceable(16) %39, ptr noundef @.str.13)
          to label %40 unwind label %41

40:                                               ; preds = %38
  call void @__cxa_throw(ptr %39, ptr @_ZTISt13runtime_error, ptr @_ZNSt13runtime_errorD1Ev) #26
  unreachable

41:                                               ; preds = %38
  %42 = landingpad { ptr, i32 }
          cleanup
  %43 = extractvalue { ptr, i32 } %42, 0
  store ptr %43, ptr %9, align 8
  %44 = extractvalue { ptr, i32 } %42, 1
  store i32 %44, ptr %10, align 4
  call void @__cxa_free_exception(ptr %39) #12
  br label %47

45:                                               ; preds = %30, %24, %20, %17, %15
  %46 = load float, ptr %4, align 4
  ret float %46

47:                                               ; preds = %41
  %48 = load ptr, ptr %9, align 8
  %49 = load i32, ptr %10, align 4
  %50 = insertvalue { ptr, i32 } poison, ptr %48, 0
  %51 = insertvalue { ptr, i32 } %50, i32 %49, 1
  resume { ptr, i32 } %51
}