; Function Attrs: mustprogress uwtable
define dso_local noundef float @_ZN3tev11ImageCanvas11applyMetricEffNS_7EMetricE(float noundef %0, float noundef %1, i32 noundef %2) local_unnamed_addr #3 align 2 personality ptr @__gxx_personality_v0 {
  %4 = fsub float %0, %1
  switch i32 %2, label %17 [
    i32 0, label %22
    i32 1, label %5
    i32 2, label %7
    i32 3, label %9
    i32 4, label %13
  ]

5:                                                ; preds = %3
  %6 = tail call noundef float @llvm.fabs.f32(float %4)
  br label %22

7:                                                ; preds = %3
  %8 = fmul float %4, %4
  br label %22

9:                                                ; preds = %3
  %10 = tail call noundef float @llvm.fabs.f32(float %4)
  %11 = fadd float %1, 0x3F847AE140000000
  %12 = fdiv float %10, %11
  br label %22

13:                                               ; preds = %3
  %14 = fmul float %4, %4
  %15 = tail call float @llvm.fmuladd.f32(float %1, float %1, float 0x3F847AE140000000)
  %16 = fdiv float %14, %15
  br label %22

17:                                               ; preds = %3
  %18 = tail call ptr @__cxa_allocate_exception(i64 16) #33
  invoke void @_ZNSt13runtime_errorC1EPKc(ptr noundef nonnull align 8 dereferenceable(16) %18, ptr noundef nonnull @.str.13)
          to label %19 unwind label %20

19:                                               ; preds = %17
  tail call void @__cxa_throw(ptr nonnull %18, ptr nonnull @_ZTISt13runtime_error, ptr nonnull @_ZNSt13runtime_errorD1Ev) #36
  unreachable

20:                                               ; preds = %17
  %21 = landingpad { ptr, i32 }
          cleanup
  tail call void @__cxa_free_exception(ptr %18) #33
  resume { ptr, i32 } %21

22:                                               ; preds = %3, %13, %9, %7, %5
  %.0 = phi float [ %16, %13 ], [ %12, %9 ], [ %8, %7 ], [ %6, %5 ], [ %4, %3 ]
  ret float %.0
}